; Function Attrs: cold mustprogress optsize uwtable
define dso_local void @_ZN4absl13base_internal8SpinLock10SlowUnlockEj(ptr noundef nonnull align 4 dereferenceable(4) %0, i32 noundef %1) local_unnamed_addr #3 align 2 {
  tail call void @AbslInternalSpinLockWake(ptr noundef nonnull %0, i1 noundef zeroext false)
  %3 = and i32 %1, -8
  %.not = icmp eq i32 %3, 8
  br i1 %.not, label %8, label %4

4:                                                ; preds = %2
  %5 = zext i32 %3 to i64
  %6 = shl nuw nsw i64 %5, 4
  %7 = load atomic i64, ptr @_ZN4absl13base_internalL19submit_profile_dataE acquire, align 8
  %.0.i.i.i.i = inttoptr i64 %7 to ptr
  tail call void %.0.i.i.i.i(ptr noundef nonnull %0, i64 noundef %6)
  br label %8

8:                                                ; preds = %4, %2
  ret void
}